target datalayout = "e-m:e-p270:32:32-p271:32:32-p272:64:64-i64:64-i128:128-f80:128-n8:16:32:64-S128"
target triple = "x86_64-pc-linux-gnu"

%struct.FunctionCallInfoBaseData = type { ptr, ptr, ptr, i32, i8, i16, [0 x %struct.NullableDatum] }
%struct.NullableDatum = type { i64, i8 }
%struct.LocalPgBackendStatus = type { %struct.PgBackendStatus, i32, i32, i32, i32, i8 }
%struct.PgBackendStatus = type { i32, i32, i32, i64, i64, i64, i64, i32, i32, %struct.SockAddr, ptr, i8, ptr, i8, ptr, i32, ptr, ptr, i32, i32, [20 x i64], i64 }
%struct.SockAddr = type { %struct.sockaddr_storage, i32 }
%struct.sockaddr_storage = type { i16, [118 x i8], i64 }

; Function Attrs: inlinehint nounwind uwtable
define internal i64 @Int32GetDatum(i32 noundef %0) #2 {
  %2 = alloca i32, align 4
  store i32 %0, ptr %2, align 4
  %3 = load i32, ptr %2, align 4
  %4 = sext i32 %3 to i64
  ret i64 %4
}

; Function Attrs: inlinehint nounwind uwtable
define internal i32 @DatumGetObjectId(i64 noundef %0) #2 {
  %2 = alloca i64, align 8
  store i64 %0, ptr %2, align 8
  %3 = load i64, ptr %2, align 8
  %4 = trunc i64 %3 to i32
  ret i32 %4
}

; Function Attrs: nounwind uwtable
define dso_local i64 @pg_stat_get_db_numbackends(ptr noundef %0) #0 {
  %2 = alloca ptr, align 8
  %3 = alloca i32, align 4
  %4 = alloca i32, align 4
  %5 = alloca i32, align 4
  %6 = alloca i32, align 4
  %7 = alloca ptr, align 8
  store ptr %0, ptr %2, align 8
  call void @llvm.lifetime.start.p0(i64 4, ptr %3) #10
  %8 = load ptr, ptr %2, align 8
  %9 = getelementptr inbounds nuw %struct.FunctionCallInfoBaseData, ptr %8, i32 0, i32 6
  %10 = getelementptr inbounds [0 x %struct.NullableDatum], ptr %9, i64 0, i64 0
  %11 = getelementptr inbounds nuw %struct.NullableDatum, ptr %10, i32 0, i32 0
  %12 = load i64, ptr %11, align 8
  %13 = call i32 @DatumGetObjectId(i64 noundef %12)
  store i32 %13, ptr %3, align 4
  call void @llvm.lifetime.start.p0(i64 4, ptr %4) #10
  call void @llvm.lifetime.start.p0(i64 4, ptr %5) #10
  %14 = call i32 @pgstat_fetch_stat_numbackends()
  store i32 %14, ptr %5, align 4
  call void @llvm.lifetime.start.p0(i64 4, ptr %6) #10
  store i32 0, ptr %4, align 4
  store i32 1, ptr %6, align 4
  br label %15

15:                                               ; preds = %32, %1
  %16 = load i32, ptr %6, align 4
  %17 = load i32, ptr %5, align 4
  %18 = icmp sle i32 %16, %17
  br i1 %18, label %19, label %35

19:                                               ; preds = %15
  call void @llvm.lifetime.start.p0(i64 8, ptr %7) #10
  %20 = load i32, ptr %6, align 4
  %21 = call ptr @pgstat_get_local_beentry_by_index(i32 noundef %20)
  store ptr %21, ptr %7, align 8
  %22 = load ptr, ptr %7, align 8
  %23 = getelementptr inbounds nuw %struct.LocalPgBackendStatus, ptr %22, i32 0, i32 0
  %24 = getelementptr inbounds nuw %struct.PgBackendStatus, ptr %23, i32 0, i32 7
  %25 = load i32, ptr %24, align 8
  %26 = load i32, ptr %3, align 4
  %27 = icmp eq i32 %25, %26
  br i1 %27, label %28, label %31

28:                                               ; preds = %19
  %29 = load i32, ptr %4, align 4
  %30 = add i32 %29, 1
  store i32 %30, ptr %4, align 4
  br label %31

31:                                               ; preds = %28, %19
  call void @llvm.lifetime.end.p0(i64 8, ptr %7) #10
  br label %32

32:                                               ; preds = %31
  %33 = load i32, ptr %6, align 4
  %34 = add i32 %33, 1
  store i32 %34, ptr %6, align 4
  br label %15, !llvm.loop !19

35:                                               ; preds = %15
  %36 = load i32, ptr %4, align 4
  %37 = call i64 @Int32GetDatum(i32 noundef %36)
  call void @llvm.lifetime.end.p0(i64 4, ptr %6) #10
  call void @llvm.lifetime.end.p0(i64 4, ptr %5) #10
  call void @llvm.lifetime.end.p0(i64 4, ptr %4) #10
  call void @llvm.lifetime.end.p0(i64 4, ptr %3) #10
  ret i64 %37
}