; Function Attrs: nounwind uwtable
define dso_local range(i64 -2147483648, 2147483648) i64 @pg_stat_get_db_numbackends(ptr noundef readonly captures(none) %0) local_unnamed_addr #0 {
  %2 = getelementptr inbounds nuw i8, ptr %0, i64 32
  %3 = load i64, ptr %2, align 8
  %4 = trunc i64 %3 to i32
  %5 = tail call i32 @pgstat_fetch_stat_numbackends() #9
  %.not9 = icmp slt i32 %5, 1
  br i1 %.not9, label %._crit_edge, label %.lr.ph

.lr.ph:                                           ; preds = %1, %.lr.ph
  %.011 = phi i32 [ %spec.select, %.lr.ph ], [ 0, %1 ]
  %.0810 = phi i32 [ %11, %.lr.ph ], [ 1, %1 ]
  %6 = tail call ptr @pgstat_get_local_beentry_by_index(i32 noundef %.0810) #9
  %7 = getelementptr inbounds nuw i8, ptr %6, i64 48
  %8 = load i32, ptr %7, align 8
  %9 = icmp eq i32 %8, %4
  %10 = zext i1 %9 to i32
  %spec.select = add i32 %.011, %10
  %11 = add i32 %.0810, 1
  %.not = icmp sgt i32 %11, %5
  br i1 %.not, label %._crit_edge.loopexit, label %.lr.ph, !llvm.loop !14

._crit_edge.loopexit:                             ; preds = %.lr.ph
  %12 = sext i32 %spec.select to i64
  br label %._crit_edge

._crit_edge:                                      ; preds = %._crit_edge.loopexit, %1
  %.0.lcssa = phi i64 [ 0, %1 ], [ %12, %._crit_edge.loopexit ]
  ret i64 %.0.lcssa
}